target datalayout = "e-m:e-p270:32:32-p271:32:32-p272:64:64-i64:64-i128:128-f80:128-n8:16:32:64-S128"
target triple = "x86_64-pc-linux-gnu"

%struct.DdManager = type { %struct.DdNode, ptr, ptr, ptr, ptr, ptr, ptr, ptr, i32, i32, double, double, double, i32, i32, i32, i32, i32, i32, ptr, ptr, %struct.DdSubtable, i32, i32, i32, i32, i32, i32, i32, double, i32, i32, i32, ptr, i64, double, i32, ptr, ptr, ptr, ptr, ptr, ptr, ptr, i32, ptr, ptr, ptr, ptr, ptr, ptr, i32, i32, i32, double, i32, i32, i32, i32, double, double, i32, i32, i32, i32, i32, i32, i32, i32, i32, ptr, ptr, i32, i32, i32, i32, i32, i32, ptr, ptr, ptr, ptr, ptr, ptr, ptr, ptr, i32, i64, i64, i64, i32, i64, i64, double, double, double, double, double, double, i32, ptr, ptr, i64 }
%struct.DdNode = type { i32, i32, ptr, %union.anon, i64 }
%union.anon = type { %struct.DdChildren }
%struct.DdChildren = type { ptr, ptr }
%struct.DdSubtable = type { ptr, i32, i32, i32, i32, i32, i32, i32, i32, i32, i32, i32 }

; Function Attrs: nounwind uwtable
define ptr @cuddMakeBddFromZddCover(ptr noundef %0, ptr noundef %1) #0 {
  %3 = alloca ptr, align 8
  %4 = alloca ptr, align 8
  %5 = alloca ptr, align 8
  %6 = alloca ptr, align 8
  %7 = alloca i32, align 4
  %8 = alloca ptr, align 8
  %9 = alloca ptr, align 8
  %10 = alloca ptr, align 8
  %11 = alloca ptr, align 8
  %12 = alloca ptr, align 8
  %13 = alloca ptr, align 8
  %14 = alloca ptr, align 8
  %15 = alloca ptr, align 8
  %16 = alloca i32, align 4
  store ptr %0, ptr %4, align 8, !tbaa !3
  store ptr %1, ptr %5, align 8, !tbaa !8
  call void @llvm.lifetime.start.p0(i64 8, ptr %6) #4
  call void @llvm.lifetime.start.p0(i64 4, ptr %7) #4
  call void @llvm.lifetime.start.p0(i64 8, ptr %8) #4
  call void @llvm.lifetime.start.p0(i64 8, ptr %9) #4
  call void @llvm.lifetime.start.p0(i64 8, ptr %10) #4
  call void @llvm.lifetime.start.p0(i64 8, ptr %11) #4
  call void @llvm.lifetime.start.p0(i64 8, ptr %12) #4
  call void @llvm.lifetime.start.p0(i64 8, ptr %13) #4
  call void @llvm.lifetime.start.p0(i64 8, ptr %14) #4
  call void @llvm.lifetime.start.p0(i64 8, ptr %15) #4
  %17 = load ptr, ptr %5, align 8, !tbaa !8
  %18 = load ptr, ptr %4, align 8, !tbaa !3
  %19 = getelementptr inbounds nuw %struct.DdManager, ptr %18, i32 0, i32 1
  %20 = load ptr, ptr %19, align 8, !tbaa !32
  %21 = icmp eq ptr %17, %20
  br i1 %21, label %22, label %26

22:                                               ; preds = %2
  %23 = load ptr, ptr %4, align 8, !tbaa !3
  %24 = getelementptr inbounds nuw %struct.DdManager, ptr %23, i32 0, i32 1
  %25 = load ptr, ptr %24, align 8, !tbaa !32
  store ptr %25, ptr %3, align 8
  store i32 1, ptr %16, align 4
  br label %246

26:                                               ; preds = %2
  %27 = load ptr, ptr %5, align 8, !tbaa !8
  %28 = load ptr, ptr %4, align 8, !tbaa !3
  %29 = getelementptr inbounds nuw %struct.DdManager, ptr %28, i32 0, i32 2
  %30 = load ptr, ptr %29, align 8, !tbaa !33
  %31 = icmp eq ptr %27, %30
  br i1 %31, label %32, label %39

32:                                               ; preds = %26
  %33 = load ptr, ptr %4, align 8, !tbaa !3
  %34 = getelementptr inbounds nuw %struct.DdManager, ptr %33, i32 0, i32 1
  %35 = load ptr, ptr %34, align 8, !tbaa !32
  %36 = ptrtoint ptr %35 to i64
  %37 = xor i64 %36, 1
  %38 = inttoptr i64 %37 to ptr
  store ptr %38, ptr %3, align 8
  store i32 1, ptr %16, align 4
  br label %246

39:                                               ; preds = %26
  %40 = load ptr, ptr %4, align 8, !tbaa !3
  %41 = load ptr, ptr %5, align 8, !tbaa !8
  %42 = call ptr @cuddCacheLookup1(ptr noundef %40, ptr noundef @cuddMakeBddFromZddCover, ptr noundef %41)
  store ptr %42, ptr %6, align 8, !tbaa !8
  %43 = load ptr, ptr %6, align 8, !tbaa !8
  %44 = icmp ne ptr %43, null
  br i1 %44, label %45, label %47

45:                                               ; preds = %39
  %46 = load ptr, ptr %6, align 8, !tbaa !8
  store ptr %46, ptr %3, align 8
  store i32 1, ptr %16, align 4
  br label %246

47:                                               ; preds = %39
  %48 = load ptr, ptr %5, align 8, !tbaa !8
  %49 = ptrtoint ptr %48 to i64
  %50 = and i64 %49, -2
  %51 = inttoptr i64 %50 to ptr
  %52 = getelementptr inbounds nuw %struct.DdNode, ptr %51, i32 0, i32 0
  %53 = load i32, ptr %52, align 8, !tbaa !37
  store i32 %53, ptr %7, align 4, !tbaa !28
  %54 = load ptr, ptr %4, align 8, !tbaa !3
  %55 = load ptr, ptr %5, align 8, !tbaa !8
  %56 = load i32, ptr %7, align 4, !tbaa !28
  %57 = call i32 @cuddZddGetCofactors3(ptr noundef %54, ptr noundef %55, i32 noundef %56, ptr noundef %8, ptr noundef %9, ptr noundef %10)
  %58 = icmp ne i32 %57, 0
  br i1 %58, label %59, label %60

59:                                               ; preds = %47
  store ptr null, ptr %3, align 8
  store i32 1, ptr %16, align 4
  br label %246

60:                                               ; preds = %47
  %61 = load ptr, ptr %8, align 8, !tbaa !8
  call void @Cudd_Ref(ptr noundef %61)
  %62 = load ptr, ptr %9, align 8, !tbaa !8
  call void @Cudd_Ref(ptr noundef %62)
  %63 = load ptr, ptr %10, align 8, !tbaa !8
  call void @Cudd_Ref(ptr noundef %63)
  %64 = load ptr, ptr %4, align 8, !tbaa !3
  %65 = load ptr, ptr %8, align 8, !tbaa !8
  %66 = call ptr @cuddMakeBddFromZddCover(ptr noundef %64, ptr noundef %65)
  store ptr %66, ptr %11, align 8, !tbaa !8
  %67 = load ptr, ptr %11, align 8, !tbaa !8
  %68 = icmp ne ptr %67, null
  br i1 %68, label %76, label %69

69:                                               ; preds = %60
  %70 = load ptr, ptr %4, align 8, !tbaa !3
  %71 = load ptr, ptr %8, align 8, !tbaa !8
  call void @Cudd_RecursiveDerefZdd(ptr noundef %70, ptr noundef %71)
  %72 = load ptr, ptr %4, align 8, !tbaa !3
  %73 = load ptr, ptr %9, align 8, !tbaa !8
  call void @Cudd_RecursiveDerefZdd(ptr noundef %72, ptr noundef %73)
  %74 = load ptr, ptr %4, align 8, !tbaa !3
  %75 = load ptr, ptr %10, align 8, !tbaa !8
  call void @Cudd_RecursiveDerefZdd(ptr noundef %74, ptr noundef %75)
  store ptr null, ptr %3, align 8
  store i32 1, ptr %16, align 4
  br label %246

76:                                               ; preds = %60
  %77 = load ptr, ptr %11, align 8, !tbaa !8
  call void @Cudd_Ref(ptr noundef %77)
  %78 = load ptr, ptr %4, align 8, !tbaa !3
  %79 = load ptr, ptr %9, align 8, !tbaa !8
  %80 = call ptr @cuddMakeBddFromZddCover(ptr noundef %78, ptr noundef %79)
  store ptr %80, ptr %12, align 8, !tbaa !8
  %81 = load ptr, ptr %12, align 8, !tbaa !8
  %82 = icmp ne ptr %81, null
  br i1 %82, label %92, label %83

83:                                               ; preds = %76
  %84 = load ptr, ptr %4, align 8, !tbaa !3
  %85 = load ptr, ptr %8, align 8, !tbaa !8
  call void @Cudd_RecursiveDerefZdd(ptr noundef %84, ptr noundef %85)
  %86 = load ptr, ptr %4, align 8, !tbaa !3
  %87 = load ptr, ptr %9, align 8, !tbaa !8
  call void @Cudd_RecursiveDerefZdd(ptr noundef %86, ptr noundef %87)
  %88 = load ptr, ptr %4, align 8, !tbaa !3
  %89 = load ptr, ptr %10, align 8, !tbaa !8
  call void @Cudd_RecursiveDerefZdd(ptr noundef %88, ptr noundef %89)
  %90 = load ptr, ptr %4, align 8, !tbaa !3
  %91 = load ptr, ptr %11, align 8, !tbaa !8
  call void @Cudd_RecursiveDeref(ptr noundef %90, ptr noundef %91)
  store ptr null, ptr %3, align 8
  store i32 1, ptr %16, align 4
  br label %246

92:                                               ; preds = %76
  %93 = load ptr, ptr %12, align 8, !tbaa !8
  call void @Cudd_Ref(ptr noundef %93)
  %94 = load ptr, ptr %4, align 8, !tbaa !3
  %95 = load ptr, ptr %8, align 8, !tbaa !8
  call void @Cudd_RecursiveDerefZdd(ptr noundef %94, ptr noundef %95)
  %96 = load ptr, ptr %4, align 8, !tbaa !3
  %97 = load ptr, ptr %9, align 8, !tbaa !8
  call void @Cudd_RecursiveDerefZdd(ptr noundef %96, ptr noundef %97)
  %98 = load ptr, ptr %10, align 8, !tbaa !8
  %99 = load ptr, ptr %4, align 8, !tbaa !3
  %100 = getelementptr inbounds nuw %struct.DdManager, ptr %99, i32 0, i32 2
  %101 = load ptr, ptr %100, align 8, !tbaa !33
  %102 = icmp ne ptr %98, %101
  br i1 %102, label %103, label %184

103:                                              ; preds = %92
  %104 = load ptr, ptr %4, align 8, !tbaa !3
  %105 = load ptr, ptr %10, align 8, !tbaa !8
  %106 = call ptr @cuddMakeBddFromZddCover(ptr noundef %104, ptr noundef %105)
  store ptr %106, ptr %13, align 8, !tbaa !8
  %107 = load ptr, ptr %13, align 8, !tbaa !8
  %108 = icmp ne ptr %107, null
  br i1 %108, label %116, label %109

109:                                              ; preds = %103
  %110 = load ptr, ptr %4, align 8, !tbaa !3
  %111 = load ptr, ptr %10, align 8, !tbaa !8
  call void @Cudd_RecursiveDerefZdd(ptr noundef %110, ptr noundef %111)
  %112 = load ptr, ptr %4, align 8, !tbaa !3
  %113 = load ptr, ptr %11, align 8, !tbaa !8
  call void @Cudd_RecursiveDeref(ptr noundef %112, ptr noundef %113)
  %114 = load ptr, ptr %4, align 8, !tbaa !3
  %115 = load ptr, ptr %12, align 8, !tbaa !8
  call void @Cudd_RecursiveDeref(ptr noundef %114, ptr noundef %115)
  store ptr null, ptr %3, align 8
  store i32 1, ptr %16, align 4
  br label %246

116:                                              ; preds = %103
  %117 = load ptr, ptr %13, align 8, !tbaa !8
  call void @Cudd_Ref(ptr noundef %117)
  %118 = load ptr, ptr %4, align 8, !tbaa !3
  %119 = load ptr, ptr %10, align 8, !tbaa !8
  call void @Cudd_RecursiveDerefZdd(ptr noundef %118, ptr noundef %119)
  %120 = load ptr, ptr %4, align 8, !tbaa !3
  %121 = load ptr, ptr %11, align 8, !tbaa !8
  %122 = ptrtoint ptr %121 to i64
  %123 = xor i64 %122, 1
  %124 = inttoptr i64 %123 to ptr
  %125 = load ptr, ptr %13, align 8, !tbaa !8
  %126 = ptrtoint ptr %125 to i64
  %127 = xor i64 %126, 1
  %128 = inttoptr i64 %127 to ptr
  %129 = call ptr @cuddBddAndRecur(ptr noundef %120, ptr noundef %124, ptr noundef %128)
  store ptr %129, ptr %14, align 8, !tbaa !8
  %130 = load ptr, ptr %14, align 8, !tbaa !8
  %131 = icmp ne ptr %130, null
  br i1 %131, label %139, label %132

132:                                              ; preds = %116
  %133 = load ptr, ptr %4, align 8, !tbaa !3
  %134 = load ptr, ptr %11, align 8, !tbaa !8
  call void @Cudd_RecursiveDeref(ptr noundef %133, ptr noundef %134)
  %135 = load ptr, ptr %4, align 8, !tbaa !3
  %136 = load ptr, ptr %12, align 8, !tbaa !8
  call void @Cudd_RecursiveDeref(ptr noundef %135, ptr noundef %136)
  %137 = load ptr, ptr %4, align 8, !tbaa !3
  %138 = load ptr, ptr %13, align 8, !tbaa !8
  call void @Cudd_RecursiveDeref(ptr noundef %137, ptr noundef %138)
  store ptr null, ptr %3, align 8
  store i32 1, ptr %16, align 4
  br label %246

139:                                              ; preds = %116
  %140 = load ptr, ptr %14, align 8, !tbaa !8
  %141 = ptrtoint ptr %140 to i64
  %142 = load ptr, ptr %14, align 8, !tbaa !8
  %143 = icmp ne ptr %142, null
  %144 = zext i1 %143 to i32
  %145 = sext i32 %144 to i64
  %146 = xor i64 %141, %145
  %147 = inttoptr i64 %146 to ptr
  store ptr %147, ptr %14, align 8, !tbaa !8
  %148 = load ptr, ptr %14, align 8, !tbaa !8
  call void @Cudd_Ref(ptr noundef %148)
  %149 = load ptr, ptr %4, align 8, !tbaa !3
  %150 = load ptr, ptr %11, align 8, !tbaa !8
  call void @Cudd_RecursiveDeref(ptr noundef %149, ptr noundef %150)
  %151 = load ptr, ptr %4, align 8, !tbaa !3
  %152 = load ptr, ptr %12, align 8, !tbaa !8
  %153 = ptrtoint ptr %152 to i64
  %154 = xor i64 %153, 1
  %155 = inttoptr i64 %154 to ptr
  %156 = load ptr, ptr %13, align 8, !tbaa !8
  %157 = ptrtoint ptr %156 to i64
  %158 = xor i64 %157, 1
  %159 = inttoptr i64 %158 to ptr
  %160 = call ptr @cuddBddAndRecur(ptr noundef %151, ptr noundef %155, ptr noundef %159)
  store ptr %160, ptr %15, align 8, !tbaa !8
  %161 = load ptr, ptr %15, align 8, !tbaa !8
  %162 = icmp ne ptr %161, null
  br i1 %162, label %170, label %163

163:                                              ; preds = %139
  %164 = load ptr, ptr %4, align 8, !tbaa !3
  %165 = load ptr, ptr %12, align 8, !tbaa !8
  call void @Cudd_RecursiveDeref(ptr noundef %164, ptr noundef %165)
  %166 = load ptr, ptr %4, align 8, !tbaa !3
  %167 = load ptr, ptr %13, align 8, !tbaa !8
  call void @Cudd_RecursiveDeref(ptr noundef %166, ptr noundef %167)
  %168 = load ptr, ptr %4, align 8, !tbaa !3
  %169 = load ptr, ptr %14, align 8, !tbaa !8
  call void @Cudd_RecursiveDeref(ptr noundef %168, ptr noundef %169)
  store ptr null, ptr %3, align 8
  store i32 1, ptr %16, align 4
  br label %246

170:                                              ; preds = %139
  %171 = load ptr, ptr %15, align 8, !tbaa !8
  %172 = ptrtoint ptr %171 to i64
  %173 = load ptr, ptr %15, align 8, !tbaa !8
  %174 = icmp ne ptr %173, null
  %175 = zext i1 %174 to i32
  %176 = sext i32 %175 to i64
  %177 = xor i64 %172, %176
  %178 = inttoptr i64 %177 to ptr
  store ptr %178, ptr %15, align 8, !tbaa !8
  %179 = load ptr, ptr %15, align 8, !tbaa !8
  call void @Cudd_Ref(ptr noundef %179)
  %180 = load ptr, ptr %4, align 8, !tbaa !3
  %181 = load ptr, ptr %12, align 8, !tbaa !8
  call void @Cudd_RecursiveDeref(ptr noundef %180, ptr noundef %181)
  %182 = load ptr, ptr %4, align 8, !tbaa !3
  %183 = load ptr, ptr %13, align 8, !tbaa !8
  call void @Cudd_RecursiveDeref(ptr noundef %182, ptr noundef %183)
  br label %189

184:                                              ; preds = %92
  %185 = load ptr, ptr %4, align 8, !tbaa !3
  %186 = load ptr, ptr %10, align 8, !tbaa !8
  call void @Cudd_RecursiveDerefZdd(ptr noundef %185, ptr noundef %186)
  %187 = load ptr, ptr %11, align 8, !tbaa !8
  store ptr %187, ptr %14, align 8, !tbaa !8
  %188 = load ptr, ptr %12, align 8, !tbaa !8
  store ptr %188, ptr %15, align 8, !tbaa !8
  br label %189

189:                                              ; preds = %184, %170
  %190 = load ptr, ptr %14, align 8, !tbaa !8
  %191 = ptrtoint ptr %190 to i64
  %192 = and i64 %191, 1
  %193 = trunc i64 %192 to i32
  %194 = icmp ne i32 %193, 0
  br i1 %194, label %195, label %220

195:                                              ; preds = %189
  %196 = load ptr, ptr %4, align 8, !tbaa !3
  %197 = load i32, ptr %7, align 4, !tbaa !28
  %198 = sdiv i32 %197, 2
  %199 = load ptr, ptr %14, align 8, !tbaa !8
  %200 = ptrtoint ptr %199 to i64
  %201 = xor i64 %200, 1
  %202 = inttoptr i64 %201 to ptr
  %203 = load ptr, ptr %15, align 8, !tbaa !8
  %204 = ptrtoint ptr %203 to i64
  %205 = xor i64 %204, 1
  %206 = inttoptr i64 %205 to ptr
  %207 = call ptr @cuddUniqueInterIVO(ptr noundef %196, i32 noundef %198, ptr noundef %202, ptr noundef %206)
  store ptr %207, ptr %6, align 8, !tbaa !8
  %208 = load ptr, ptr %6, align 8, !tbaa !8
  %209 = icmp ne ptr %208, null
  br i1 %209, label %215, label %210

210:                                              ; preds = %195
  %211 = load ptr, ptr %4, align 8, !tbaa !3
  %212 = load ptr, ptr %14, align 8, !tbaa !8
  call void @Cudd_RecursiveDeref(ptr noundef %211, ptr noundef %212)
  %213 = load ptr, ptr %4, align 8, !tbaa !3
  %214 = load ptr, ptr %15, align 8, !tbaa !8
  call void @Cudd_RecursiveDeref(ptr noundef %213, ptr noundef %214)
  store ptr null, ptr %3, align 8
  store i32 1, ptr %16, align 4
  br label %246

215:                                              ; preds = %195
  %216 = load ptr, ptr %6, align 8, !tbaa !8
  %217 = ptrtoint ptr %216 to i64
  %218 = xor i64 %217, 1
  %219 = inttoptr i64 %218 to ptr
  store ptr %219, ptr %6, align 8, !tbaa !8
  br label %235

220:                                              ; preds = %189
  %221 = load ptr, ptr %4, align 8, !tbaa !3
  %222 = load i32, ptr %7, align 4, !tbaa !28
  %223 = sdiv i32 %222, 2
  %224 = load ptr, ptr %14, align 8, !tbaa !8
  %225 = load ptr, ptr %15, align 8, !tbaa !8
  %226 = call ptr @cuddUniqueInterIVO(ptr noundef %221, i32 noundef %223, ptr noundef %224, ptr noundef %225)
  store ptr %226, ptr %6, align 8, !tbaa !8
  %227 = load ptr, ptr %6, align 8, !tbaa !8
  %228 = icmp ne ptr %227, null
  br i1 %228, label %234, label %229

229:                                              ; preds = %220
  %230 = load ptr, ptr %4, align 8, !tbaa !3
  %231 = load ptr, ptr %14, align 8, !tbaa !8
  call void @Cudd_RecursiveDeref(ptr noundef %230, ptr noundef %231)
  %232 = load ptr, ptr %4, align 8, !tbaa !3
  %233 = load ptr, ptr %15, align 8, !tbaa !8
  call void @Cudd_RecursiveDeref(ptr noundef %232, ptr noundef %233)
  store ptr null, ptr %3, align 8
  store i32 1, ptr %16, align 4
  br label %246

234:                                              ; preds = %220
  br label %235

235:                                              ; preds = %234, %215
  %236 = load ptr, ptr %6, align 8, !tbaa !8
  call void @Cudd_Ref(ptr noundef %236)
  %237 = load ptr, ptr %4, align 8, !tbaa !3
  %238 = load ptr, ptr %14, align 8, !tbaa !8
  call void @Cudd_RecursiveDeref(ptr noundef %237, ptr noundef %238)
  %239 = load ptr, ptr %4, align 8, !tbaa !3
  %240 = load ptr, ptr %15, align 8, !tbaa !8
  call void @Cudd_RecursiveDeref(ptr noundef %239, ptr noundef %240)
  %241 = load ptr, ptr %4, align 8, !tbaa !3
  %242 = load ptr, ptr %5, align 8, !tbaa !8
  %243 = load ptr, ptr %6, align 8, !tbaa !8
  call void @cuddCacheInsert1(ptr noundef %241, ptr noundef @cuddMakeBddFromZddCover, ptr noundef %242, ptr noundef %243)
  %244 = load ptr, ptr %6, align 8, !tbaa !8
  call void @Cudd_Deref(ptr noundef %244)
  %245 = load ptr, ptr %6, align 8, !tbaa !8
  store ptr %245, ptr %3, align 8
  store i32 1, ptr %16, align 4
  br label %246

246:                                              ; preds = %235, %229, %210, %163, %132, %109, %83, %69, %59, %45, %32, %22
  call void @llvm.lifetime.end.p0(i64 8, ptr %15) #4
  call void @llvm.lifetime.end.p0(i64 8, ptr %14) #4
  call void @llvm.lifetime.end.p0(i64 8, ptr %13) #4
  call void @llvm.lifetime.end.p0(i64 8, ptr %12) #4
  call void @llvm.lifetime.end.p0(i64 8, ptr %11) #4
  call void @llvm.lifetime.end.p0(i64 8, ptr %10) #4
  call void @llvm.lifetime.end.p0(i64 8, ptr %9) #4
  call void @llvm.lifetime.end.p0(i64 8, ptr %8) #4
  call void @llvm.lifetime.end.p0(i64 4, ptr %7) #4
  call void @llvm.lifetime.end.p0(i64 8, ptr %6) #4
  %247 = load ptr, ptr %3, align 8
  ret ptr %247
}