; Function Attrs: nounwind uwtable
define ptr @cuddMakeBddFromZddCover(ptr noundef %0, ptr noundef %1) #0 {
  %3 = alloca ptr, align 8
  %4 = alloca ptr, align 8
  %5 = alloca ptr, align 8
  call void @llvm.lifetime.start.p0(i64 8, ptr nonnull %3) #5
  call void @llvm.lifetime.start.p0(i64 8, ptr nonnull %4) #5
  call void @llvm.lifetime.start.p0(i64 8, ptr nonnull %5) #5
  %6 = getelementptr inbounds nuw i8, ptr %0, i64 40
  %7 = load ptr, ptr %6, align 8, !tbaa !27
  %8 = icmp eq ptr %1, %7
  br i1 %8, label %95, label %9

9:                                                ; preds = %2
  %10 = getelementptr inbounds nuw i8, ptr %0, i64 48
  %11 = load ptr, ptr %10, align 8, !tbaa !28
  %12 = icmp eq ptr %1, %11
  br i1 %12, label %13, label %17

13:                                               ; preds = %9
  %14 = ptrtoint ptr %7 to i64
  %15 = xor i64 %14, 1
  %16 = inttoptr i64 %15 to ptr
  br label %95

17:                                               ; preds = %9
  %18 = tail call ptr @cuddCacheLookup1(ptr noundef nonnull %0, ptr noundef nonnull @cuddMakeBddFromZddCover, ptr noundef %1) #5
  %.not = icmp eq ptr %18, null
  br i1 %.not, label %19, label %95

19:                                               ; preds = %17
  %20 = ptrtoint ptr %1 to i64
  %21 = and i64 %20, -2
  %22 = inttoptr i64 %21 to ptr
  %23 = load i32, ptr %22, align 8, !tbaa !32
  %24 = call i32 @cuddZddGetCofactors3(ptr noundef nonnull %0, ptr noundef %1, i32 noundef %23, ptr noundef nonnull %3, ptr noundef nonnull %4, ptr noundef nonnull %5) #5
  %.not120 = icmp eq i32 %24, 0
  br i1 %.not120, label %25, label %95

25:                                               ; preds = %19
  %26 = load ptr, ptr %3, align 8, !tbaa !29
  call void @Cudd_Ref(ptr noundef %26) #5
  %27 = load ptr, ptr %4, align 8, !tbaa !29
  call void @Cudd_Ref(ptr noundef %27) #5
  %28 = load ptr, ptr %5, align 8, !tbaa !29
  call void @Cudd_Ref(ptr noundef %28) #5
  %29 = load ptr, ptr %3, align 8, !tbaa !29
  %30 = call ptr @cuddMakeBddFromZddCover(ptr noundef nonnull %0, ptr noundef %29)
  %.not121 = icmp eq ptr %30, null
  br i1 %.not121, label %31, label %35

31:                                               ; preds = %25
  %32 = load ptr, ptr %3, align 8, !tbaa !29
  call void @Cudd_RecursiveDerefZdd(ptr noundef nonnull %0, ptr noundef %32) #5
  %33 = load ptr, ptr %4, align 8, !tbaa !29
  call void @Cudd_RecursiveDerefZdd(ptr noundef nonnull %0, ptr noundef %33) #5
  %34 = load ptr, ptr %5, align 8, !tbaa !29
  call void @Cudd_RecursiveDerefZdd(ptr noundef nonnull %0, ptr noundef %34) #5
  br label %95

35:                                               ; preds = %25
  call void @Cudd_Ref(ptr noundef nonnull %30) #5
  %36 = load ptr, ptr %4, align 8, !tbaa !29
  %37 = call ptr @cuddMakeBddFromZddCover(ptr noundef nonnull %0, ptr noundef %36)
  %.not122 = icmp eq ptr %37, null
  br i1 %.not122, label %38, label %42

38:                                               ; preds = %35
  %39 = load ptr, ptr %3, align 8, !tbaa !29
  call void @Cudd_RecursiveDerefZdd(ptr noundef nonnull %0, ptr noundef %39) #5
  %40 = load ptr, ptr %4, align 8, !tbaa !29
  call void @Cudd_RecursiveDerefZdd(ptr noundef nonnull %0, ptr noundef %40) #5
  %41 = load ptr, ptr %5, align 8, !tbaa !29
  call void @Cudd_RecursiveDerefZdd(ptr noundef nonnull %0, ptr noundef %41) #5
  call void @Cudd_RecursiveDeref(ptr noundef nonnull %0, ptr noundef nonnull %30) #5
  br label %95

42:                                               ; preds = %35
  call void @Cudd_Ref(ptr noundef nonnull %37) #5
  %43 = load ptr, ptr %3, align 8, !tbaa !29
  call void @Cudd_RecursiveDerefZdd(ptr noundef nonnull %0, ptr noundef %43) #5
  %44 = load ptr, ptr %4, align 8, !tbaa !29
  call void @Cudd_RecursiveDerefZdd(ptr noundef nonnull %0, ptr noundef %44) #5
  %45 = load ptr, ptr %5, align 8, !tbaa !29
  %46 = load ptr, ptr %10, align 8, !tbaa !28
  %.not123 = icmp eq ptr %45, %46
  br i1 %.not123, label %74, label %47

47:                                               ; preds = %42
  %48 = call ptr @cuddMakeBddFromZddCover(ptr noundef nonnull %0, ptr noundef %45)
  %.not124 = icmp eq ptr %48, null
  br i1 %.not124, label %49, label %51

49:                                               ; preds = %47
  %50 = load ptr, ptr %5, align 8, !tbaa !29
  call void @Cudd_RecursiveDerefZdd(ptr noundef nonnull %0, ptr noundef %50) #5
  call void @Cudd_RecursiveDeref(ptr noundef nonnull %0, ptr noundef nonnull %30) #5
  call void @Cudd_RecursiveDeref(ptr noundef nonnull %0, ptr noundef nonnull %37) #5
  br label %95

51:                                               ; preds = %47
  call void @Cudd_Ref(ptr noundef nonnull %48) #5
  %52 = load ptr, ptr %5, align 8, !tbaa !29
  call void @Cudd_RecursiveDerefZdd(ptr noundef nonnull %0, ptr noundef %52) #5
  %53 = ptrtoint ptr %30 to i64
  %54 = xor i64 %53, 1
  %55 = inttoptr i64 %54 to ptr
  %56 = ptrtoint ptr %48 to i64
  %57 = xor i64 %56, 1
  %58 = inttoptr i64 %57 to ptr
  %59 = call ptr @cuddBddAndRecur(ptr noundef nonnull %0, ptr noundef %55, ptr noundef %58) #5
  %.not125 = icmp eq ptr %59, null
  br i1 %.not125, label %60, label %61

60:                                               ; preds = %51
  call void @Cudd_RecursiveDeref(ptr noundef nonnull %0, ptr noundef nonnull %30) #5
  call void @Cudd_RecursiveDeref(ptr noundef nonnull %0, ptr noundef nonnull %37) #5
  call void @Cudd_RecursiveDeref(ptr noundef nonnull %0, ptr noundef nonnull %48) #5
  br label %95

61:                                               ; preds = %51
  %62 = ptrtoint ptr %59 to i64
  %63 = xor i64 %62, 1
  %64 = inttoptr i64 %63 to ptr
  call void @Cudd_Ref(ptr noundef %64) #5
  call void @Cudd_RecursiveDeref(ptr noundef nonnull %0, ptr noundef nonnull %30) #5
  %65 = ptrtoint ptr %37 to i64
  %66 = xor i64 %65, 1
  %67 = inttoptr i64 %66 to ptr
  %68 = call ptr @cuddBddAndRecur(ptr noundef nonnull %0, ptr noundef %67, ptr noundef %58) #5
  %.not126 = icmp eq ptr %68, null
  br i1 %.not126, label %69, label %70

69:                                               ; preds = %61
  call void @Cudd_RecursiveDeref(ptr noundef nonnull %0, ptr noundef nonnull %37) #5
  call void @Cudd_RecursiveDeref(ptr noundef nonnull %0, ptr noundef nonnull %48) #5
  call void @Cudd_RecursiveDeref(ptr noundef nonnull %0, ptr noundef %64) #5
  br label %95

70:                                               ; preds = %61
  %71 = ptrtoint ptr %68 to i64
  %72 = xor i64 %71, 1
  %73 = inttoptr i64 %72 to ptr
  call void @Cudd_Ref(ptr noundef %73) #5
  call void @Cudd_RecursiveDeref(ptr noundef nonnull %0, ptr noundef nonnull %37) #5
  call void @Cudd_RecursiveDeref(ptr noundef nonnull %0, ptr noundef nonnull %48) #5
  br label %75

74:                                               ; preds = %42
  call void @Cudd_RecursiveDerefZdd(ptr noundef nonnull %0, ptr noundef %45) #5
  br label %75

75:                                               ; preds = %74, %70
  %.0105 = phi ptr [ %64, %70 ], [ %30, %74 ]
  %.0 = phi ptr [ %73, %70 ], [ %37, %74 ]
  %76 = ptrtoint ptr %.0105 to i64
  %77 = and i64 %76, 1
  %.not127 = icmp eq i64 %77, 0
  %78 = sdiv i32 %23, 2
  br i1 %.not127, label %91, label %79

79:                                               ; preds = %75
  %80 = and i64 %76, -2
  %81 = inttoptr i64 %80 to ptr
  %82 = ptrtoint ptr %.0 to i64
  %83 = xor i64 %82, 1
  %84 = inttoptr i64 %83 to ptr
  %85 = call ptr @cuddUniqueInterIVO(ptr noundef nonnull %0, i32 noundef %78, ptr noundef %81, ptr noundef %84) #5
  %.not129 = icmp eq ptr %85, null
  br i1 %.not129, label %86, label %87

86:                                               ; preds = %79
  call void @Cudd_RecursiveDeref(ptr noundef nonnull %0, ptr noundef %.0105) #5
  call void @Cudd_RecursiveDeref(ptr noundef nonnull %0, ptr noundef %.0) #5
  br label %95

87:                                               ; preds = %79
  %88 = ptrtoint ptr %85 to i64
  %89 = xor i64 %88, 1
  %90 = inttoptr i64 %89 to ptr
  br label %94

91:                                               ; preds = %75
  %92 = call ptr @cuddUniqueInterIVO(ptr noundef nonnull %0, i32 noundef %78, ptr noundef %.0105, ptr noundef %.0) #5
  %.not128 = icmp eq ptr %92, null
  br i1 %.not128, label %93, label %94

93:                                               ; preds = %91
  call void @Cudd_RecursiveDeref(ptr noundef nonnull %0, ptr noundef %.0105) #5
  call void @Cudd_RecursiveDeref(ptr noundef nonnull %0, ptr noundef %.0) #5
  br label %95

94:                                               ; preds = %91, %87
  %.0107 = phi ptr [ %90, %87 ], [ %92, %91 ]
  call void @Cudd_Ref(ptr noundef %.0107) #5
  call void @Cudd_RecursiveDeref(ptr noundef nonnull %0, ptr noundef %.0105) #5
  call void @Cudd_RecursiveDeref(ptr noundef nonnull %0, ptr noundef %.0) #5
  call void @cuddCacheInsert1(ptr noundef nonnull %0, ptr noundef nonnull @cuddMakeBddFromZddCover, ptr noundef %1, ptr noundef %.0107) #5
  call void @Cudd_Deref(ptr noundef %.0107) #5
  br label %95

95:                                               ; preds = %19, %17, %2, %94, %93, %86, %69, %60, %49, %38, %31, %13
  %.0106 = phi ptr [ %16, %13 ], [ %.0107, %94 ], [ null, %86 ], [ null, %93 ], [ null, %69 ], [ null, %60 ], [ null, %49 ], [ null, %38 ], [ null, %31 ], [ %7, %2 ], [ %18, %17 ], [ null, %19 ]
  call void @llvm.lifetime.end.p0(i64 8, ptr nonnull %5) #5
  call void @llvm.lifetime.end.p0(i64 8, ptr nonnull %4) #5
  call void @llvm.lifetime.end.p0(i64 8, ptr nonnull %3) #5
  ret ptr %.0106
}